target datalayout = "e-m:e-p270:32:32-p271:32:32-p272:64:64-i64:64-i128:128-f80:128-n8:16:32:64-S128"
target triple = "x86_64-pc-linux-gnu"

%struct.bufferevent_pair = type { %struct.bufferevent_private, ptr, ptr }
%struct.bufferevent_private = type { %struct.bufferevent, ptr, i8, i16, i16, i16, i32, i32, %struct.event_callback, i32, i32, ptr, i64, i64, ptr, %union.anon.7, ptr }
%struct.bufferevent = type { ptr, ptr, %struct.event, %struct.event, ptr, ptr, %struct.event_watermark, %struct.event_watermark, ptr, ptr, ptr, ptr, %struct.timeval, %struct.timeval, i16 }
%struct.event = type { %struct.event_callback, %union.anon.0, i32, i16, i16, ptr, %union.anon.2, %struct.timeval }
%union.anon.0 = type { %struct.anon.1 }
%struct.anon.1 = type { ptr, ptr }
%union.anon.2 = type { %struct.anon.3 }
%struct.anon.3 = type { %struct.anon.4, %struct.timeval }
%struct.anon.4 = type { ptr, ptr }
%struct.event_watermark = type { i64, i64 }
%struct.timeval = type { i64, i64 }
%struct.event_callback = type { %struct.anon, i16, i8, i8, %union.anon, ptr }
%struct.anon = type { ptr, ptr }
%union.anon = type { ptr }
%union.anon.7 = type { %struct.sockaddr_in6 }
%struct.sockaddr_in6 = type { i16, i16, i32, %struct.in6_addr, i32 }
%struct.in6_addr = type { %union.anon.8 }
%union.anon.8 = type { [4 x i32] }
%struct.evbuffer_cb_info = type { i64, i64, i64 }

; Function Attrs: inlinehint nounwind uwtable
define internal ptr @upcast(ptr noundef %0) #3 {
  %2 = alloca ptr, align 8
  %3 = alloca ptr, align 8
  store ptr %0, ptr %2, align 8
  call void @llvm.lifetime.start.p0(i64 8, ptr %3) #4
  %4 = load ptr, ptr %2, align 8
  %5 = getelementptr inbounds i8, ptr %4, i64 0
  store ptr %5, ptr %3, align 8
  br label %6

6:                                                ; preds = %1
  br label %7

7:                                                ; preds = %6
  br label %8

8:                                                ; preds = %7
  %9 = load ptr, ptr %3, align 8
  call void @llvm.lifetime.end.p0(i64 8, ptr %3) #4
  ret ptr %9
}

; Function Attrs: inlinehint nounwind uwtable
define internal void @decref_and_unlock(ptr noundef %0) #3 {
  %2 = alloca ptr, align 8
  %3 = alloca ptr, align 8
  store ptr %0, ptr %2, align 8
  call void @llvm.lifetime.start.p0(i64 8, ptr %3) #4
  %4 = load ptr, ptr %2, align 8
  %5 = call ptr @upcast(ptr noundef %4)
  store ptr %5, ptr %3, align 8
  %6 = load ptr, ptr %3, align 8
  %7 = getelementptr inbounds nuw %struct.bufferevent_pair, ptr %6, i32 0, i32 1
  %8 = load ptr, ptr %7, align 8
  %9 = icmp ne ptr %8, null
  br i1 %9, label %10, label %17

10:                                               ; preds = %1
  %11 = load ptr, ptr %3, align 8
  %12 = getelementptr inbounds nuw %struct.bufferevent_pair, ptr %11, i32 0, i32 1
  %13 = load ptr, ptr %12, align 8
  %14 = getelementptr inbounds nuw %struct.bufferevent_pair, ptr %13, i32 0, i32 0
  %15 = getelementptr inbounds nuw %struct.bufferevent_private, ptr %14, i32 0, i32 0
  %16 = call i32 @bufferevent_decref_and_unlock_(ptr noundef %15)
  br label %17

17:                                               ; preds = %10, %1
  %18 = load ptr, ptr %2, align 8
  %19 = call i32 @bufferevent_decref_and_unlock_(ptr noundef %18)
  call void @llvm.lifetime.end.p0(i64 8, ptr %3) #4
  ret void
}

; Function Attrs: inlinehint nounwind uwtable
define internal i32 @be_pair_wants_to_talk(ptr noundef %0, ptr noundef %1) #3 {
  %3 = alloca ptr, align 8
  %4 = alloca ptr, align 8
  store ptr %0, ptr %3, align 8
  store ptr %1, ptr %4, align 8
  %5 = load ptr, ptr %3, align 8
  %6 = getelementptr inbounds nuw %struct.bufferevent_pair, ptr %5, i32 0, i32 0
  %7 = getelementptr inbounds nuw %struct.bufferevent_private, ptr %6, i32 0, i32 0
  %8 = getelementptr inbounds nuw %struct.bufferevent, ptr %7, i32 0, i32 14
  %9 = load i16, ptr %8, align 8
  %10 = sext i16 %9 to i32
  %11 = and i32 %10, 4
  %12 = icmp ne i32 %11, 0
  br i1 %12, label %13, label %36

13:                                               ; preds = %2
  %14 = load ptr, ptr %4, align 8
  %15 = getelementptr inbounds nuw %struct.bufferevent_pair, ptr %14, i32 0, i32 0
  %16 = getelementptr inbounds nuw %struct.bufferevent_private, ptr %15, i32 0, i32 0
  %17 = getelementptr inbounds nuw %struct.bufferevent, ptr %16, i32 0, i32 14
  %18 = load i16, ptr %17, align 8
  %19 = sext i16 %18 to i32
  %20 = and i32 %19, 2
  %21 = icmp ne i32 %20, 0
  br i1 %21, label %22, label %36

22:                                               ; preds = %13
  %23 = load ptr, ptr %4, align 8
  %24 = getelementptr inbounds nuw %struct.bufferevent_pair, ptr %23, i32 0, i32 0
  %25 = getelementptr inbounds nuw %struct.bufferevent_private, ptr %24, i32 0, i32 4
  %26 = load i16, ptr %25, align 4
  %27 = icmp ne i16 %26, 0
  br i1 %27, label %36, label %28

28:                                               ; preds = %22
  %29 = load ptr, ptr %3, align 8
  %30 = getelementptr inbounds nuw %struct.bufferevent_pair, ptr %29, i32 0, i32 0
  %31 = getelementptr inbounds nuw %struct.bufferevent_private, ptr %30, i32 0, i32 0
  %32 = getelementptr inbounds nuw %struct.bufferevent, ptr %31, i32 0, i32 5
  %33 = load ptr, ptr %32, align 8
  %34 = call i64 @evbuffer_get_length(ptr noundef %33)
  %35 = icmp ne i64 %34, 0
  br label %36

36:                                               ; preds = %28, %22, %13, %2
  %37 = phi i1 [ false, %22 ], [ false, %13 ], [ false, %2 ], [ %35, %28 ]
  %38 = zext i1 %37 to i32
  ret i32 %38
}

; Function Attrs: inlinehint nounwind uwtable
define internal void @incref_and_lock(ptr noundef %0) #3 {
  %2 = alloca ptr, align 8
  %3 = alloca ptr, align 8
  store ptr %0, ptr %2, align 8
  call void @llvm.lifetime.start.p0(i64 8, ptr %3) #4
  %4 = load ptr, ptr %2, align 8
  call void @bufferevent_incref_and_lock_(ptr noundef %4)
  %5 = load ptr, ptr %2, align 8
  %6 = call ptr @upcast(ptr noundef %5)
  store ptr %6, ptr %3, align 8
  %7 = load ptr, ptr %3, align 8
  %8 = getelementptr inbounds nuw %struct.bufferevent_pair, ptr %7, i32 0, i32 1
  %9 = load ptr, ptr %8, align 8
  %10 = icmp ne ptr %9, null
  br i1 %10, label %11, label %17

11:                                               ; preds = %1
  %12 = load ptr, ptr %3, align 8
  %13 = getelementptr inbounds nuw %struct.bufferevent_pair, ptr %12, i32 0, i32 1
  %14 = load ptr, ptr %13, align 8
  %15 = getelementptr inbounds nuw %struct.bufferevent_pair, ptr %14, i32 0, i32 0
  %16 = getelementptr inbounds nuw %struct.bufferevent_private, ptr %15, i32 0, i32 0
  call void @bufferevent_incref_and_lock_(ptr noundef %16)
  br label %17

17:                                               ; preds = %11, %1
  call void @llvm.lifetime.end.p0(i64 8, ptr %3) #4
  ret void
}

; Function Attrs: nounwind uwtable
define internal void @be_pair_outbuf_cb(ptr noundef %0, ptr noundef %1, ptr noundef %2) #0 {
  %4 = alloca ptr, align 8
  %5 = alloca ptr, align 8
  %6 = alloca ptr, align 8
  %7 = alloca ptr, align 8
  %8 = alloca ptr, align 8
  store ptr %0, ptr %4, align 8
  store ptr %1, ptr %5, align 8
  store ptr %2, ptr %6, align 8
  call void @llvm.lifetime.start.p0(i64 8, ptr %7) #4
  %9 = load ptr, ptr %6, align 8
  store ptr %9, ptr %7, align 8
  call void @llvm.lifetime.start.p0(i64 8, ptr %8) #4
  %10 = load ptr, ptr %7, align 8
  %11 = getelementptr inbounds nuw %struct.bufferevent_pair, ptr %10, i32 0, i32 1
  %12 = load ptr, ptr %11, align 8
  store ptr %12, ptr %8, align 8
  %13 = load ptr, ptr %7, align 8
  %14 = getelementptr inbounds nuw %struct.bufferevent_pair, ptr %13, i32 0, i32 0
  %15 = getelementptr inbounds nuw %struct.bufferevent_private, ptr %14, i32 0, i32 0
  call void @incref_and_lock(ptr noundef %15)
  %16 = load ptr, ptr %5, align 8
  %17 = getelementptr inbounds nuw %struct.evbuffer_cb_info, ptr %16, i32 0, i32 1
  %18 = load i64, ptr %17, align 8
  %19 = load ptr, ptr %5, align 8
  %20 = getelementptr inbounds nuw %struct.evbuffer_cb_info, ptr %19, i32 0, i32 2
  %21 = load i64, ptr %20, align 8
  %22 = icmp ugt i64 %18, %21
  br i1 %22, label %23, label %39

23:                                               ; preds = %3
  %24 = load ptr, ptr %8, align 8
  %25 = icmp ne ptr %24, null
  br i1 %25, label %26, label %39

26:                                               ; preds = %23
  %27 = load ptr, ptr %7, align 8
  %28 = load ptr, ptr %8, align 8
  %29 = call i32 @be_pair_wants_to_talk(ptr noundef %27, ptr noundef %28)
  %30 = icmp ne i32 %29, 0
  br i1 %30, label %31, label %38

31:                                               ; preds = %26
  %32 = load ptr, ptr %7, align 8
  %33 = getelementptr inbounds nuw %struct.bufferevent_pair, ptr %32, i32 0, i32 0
  %34 = getelementptr inbounds nuw %struct.bufferevent_private, ptr %33, i32 0, i32 0
  %35 = load ptr, ptr %8, align 8
  %36 = getelementptr inbounds nuw %struct.bufferevent_pair, ptr %35, i32 0, i32 0
  %37 = getelementptr inbounds nuw %struct.bufferevent_private, ptr %36, i32 0, i32 0
  call void @be_pair_transfer(ptr noundef %34, ptr noundef %37, i32 noundef 0)
  br label %38

38:                                               ; preds = %31, %26
  br label %39

39:                                               ; preds = %38, %23, %3
  %40 = load ptr, ptr %7, align 8
  %41 = getelementptr inbounds nuw %struct.bufferevent_pair, ptr %40, i32 0, i32 0
  %42 = getelementptr inbounds nuw %struct.bufferevent_private, ptr %41, i32 0, i32 0
  call void @decref_and_unlock(ptr noundef %42)
  call void @llvm.lifetime.end.p0(i64 8, ptr %8) #4
  call void @llvm.lifetime.end.p0(i64 8, ptr %7) #4
  ret void
}