; Function Attrs: nounwind uwtable
define internal void @be_pair_outbuf_cb(ptr readnone captures(none) %0, ptr noundef readonly captures(none) %1, ptr noundef %2) #0 {
  %4 = getelementptr inbounds nuw i8, ptr %2, i64 520
  %5 = load ptr, ptr %4, align 8
  tail call void @bufferevent_incref_and_lock_(ptr noundef %2) #4
  %6 = load ptr, ptr %4, align 8
  %.not.i = icmp eq ptr %6, null
  br i1 %.not.i, label %incref_and_lock.exit, label %7

7:                                                ; preds = %3
  tail call void @bufferevent_incref_and_lock_(ptr noundef nonnull %6) #4
  br label %incref_and_lock.exit

incref_and_lock.exit:                             ; preds = %3, %7
  %8 = getelementptr inbounds nuw i8, ptr %1, i64 8
  %9 = load i64, ptr %8, align 8
  %10 = getelementptr inbounds nuw i8, ptr %1, i64 16
  %11 = load i64, ptr %10, align 8
  %12 = icmp ugt i64 %9, %11
  %13 = icmp ne ptr %5, null
  %or.cond = select i1 %12, i1 %13, i1 false
  br i1 %or.cond, label %14, label %be_pair_wants_to_talk.exit.thread

14:                                               ; preds = %incref_and_lock.exit
  %15 = getelementptr inbounds nuw i8, ptr %2, i64 368
  %16 = load i16, ptr %15, align 8
  %17 = and i16 %16, 4
  %.not.i12 = icmp eq i16 %17, 0
  br i1 %.not.i12, label %be_pair_wants_to_talk.exit.thread, label %18

18:                                               ; preds = %14
  %19 = getelementptr inbounds nuw i8, ptr %5, i64 368
  %20 = load i16, ptr %19, align 8
  %21 = and i16 %20, 2
  %.not4.i = icmp eq i16 %21, 0
  br i1 %.not4.i, label %be_pair_wants_to_talk.exit.thread, label %22

22:                                               ; preds = %18
  %23 = getelementptr inbounds nuw i8, ptr %5, i64 388
  %24 = load i16, ptr %23, align 4
  %.not5.i = icmp eq i16 %24, 0
  br i1 %.not5.i, label %be_pair_wants_to_talk.exit, label %be_pair_wants_to_talk.exit.thread

be_pair_wants_to_talk.exit:                       ; preds = %22
  %25 = getelementptr inbounds nuw i8, ptr %2, i64 264
  %26 = load ptr, ptr %25, align 8
  %27 = tail call i64 @evbuffer_get_length(ptr noundef %26) #4
  %.not15 = icmp eq i64 %27, 0
  br i1 %.not15, label %be_pair_wants_to_talk.exit.thread, label %28

28:                                               ; preds = %be_pair_wants_to_talk.exit
  tail call fastcc void @be_pair_transfer(ptr noundef nonnull %2, ptr noundef nonnull %5, i32 noundef 0)
  br label %be_pair_wants_to_talk.exit.thread

be_pair_wants_to_talk.exit.thread:                ; preds = %14, %18, %22, %be_pair_wants_to_talk.exit, %28, %incref_and_lock.exit
  %29 = load ptr, ptr %4, align 8
  %.not.i13 = icmp eq ptr %29, null
  br i1 %.not.i13, label %decref_and_unlock.exit, label %30

30:                                               ; preds = %be_pair_wants_to_talk.exit.thread
  %31 = tail call i32 @bufferevent_decref_and_unlock_(ptr noundef nonnull %29) #4
  br label %decref_and_unlock.exit

decref_and_unlock.exit:                           ; preds = %be_pair_wants_to_talk.exit.thread, %30
  %32 = tail call i32 @bufferevent_decref_and_unlock_(ptr noundef nonnull %2) #4
  ret void
}